	.file	"mm256.cpp"
	.text
	.section	.text.startup,"ax",@progbits
	.p2align 4,,15
	.globl	main
	.type	main, @function
main:
.LFB11228:
	.cfi_startproc
	leaq	8(%rsp), %r10
	.cfi_def_cfa 10, 0
	andq	$-32, %rsp
	pushq	-8(%r10)
	pushq	%rbp
	.cfi_escape 0x10,0x6,0x2,0x76,0
	movq	%rsp, %rbp
	pushq	%r13
	pushq	%r12
	pushq	%r10
	.cfi_escape 0xf,0x3,0x76,0x68,0x6
	.cfi_escape 0x10,0xd,0x2,0x76,0x78
	.cfi_escape 0x10,0xc,0x2,0x76,0x70
	pushq	%rbx
	.cfi_escape 0x10,0x3,0x2,0x76,0x60
	leaq	-112(%rbp), %rbx
	leaq	-113(%rbp), %r13
	subq	$112, %rsp
	leaq	32(%rbx), %r12
	vmovapd	.LC0(%rip), %ymm0
	movq	%fs:40, %rax
	movq	%rax, -56(%rbp)
	xorl	%eax, %eax
	vmovapd	%ymm0, -112(%rbp)
	vzeroupper
	.p2align 4,,10
	.p2align 3
.L2:
	vmovsd	(%rbx), %xmm0
	leaq	_ZSt4cout(%rip), %rdi
	addq	$8, %rbx
	call	_ZNSo9_M_insertIdEERSoT_@PLT
	movl	$1, %edx
	movq	%r13, %rsi
	movq	%rax, %rdi
	movb	$9, -113(%rbp)
	call	_ZSt16__ostream_insertIcSt11char_traitsIcEERSt13basic_ostreamIT_T0_ES6_PKS3_l@PLT
	cmpq	%r12, %rbx
	jne	.L2
	leaq	_ZSt4cout(%rip), %rdi
	call	_ZSt4endlIcSt11char_traitsIcEERSt13basic_ostreamIT_T0_ES6_@PLT
	xorl	%eax, %eax
	movq	-56(%rbp), %rcx
	xorq	%fs:40, %rcx
	jne	.L8
	addq	$112, %rsp
	popq	%rbx
	popq	%r10
	.cfi_remember_state
	.cfi_def_cfa 10, 0
	popq	%r12
	popq	%r13
	popq	%rbp
	leaq	-8(%r10), %rsp
	.cfi_def_cfa 7, 8
	ret
.L8:
	.cfi_restore_state
	call	__stack_chk_fail@PLT
	.cfi_endproc
.LFE11228:
	.size	main, .-main
	.p2align 4,,15
	.type	_GLOBAL__sub_I_main, @function
_GLOBAL__sub_I_main:
.LFB11943:
	.cfi_startproc
	leaq	_ZStL8__ioinit(%rip), %rdi
	subq	$8, %rsp
	.cfi_def_cfa_offset 16
	call	_ZNSt8ios_base4InitC1Ev@PLT
	movq	_ZNSt8ios_base4InitD1Ev@GOTPCREL(%rip), %rdi
	leaq	__dso_handle(%rip), %rdx
	leaq	_ZStL8__ioinit(%rip), %rsi
	addq	$8, %rsp
	.cfi_def_cfa_offset 8
	jmp	__cxa_atexit@PLT
	.cfi_endproc
.LFE11943:
	.size	_GLOBAL__sub_I_main, .-_GLOBAL__sub_I_main
	.section	.init_array,"aw"
	.align 8
	.quad	_GLOBAL__sub_I_main
	.local	_ZStL8__ioinit
	.comm	_ZStL8__ioinit,1,1
	.section	.rodata.cst32,"aM",@progbits,32
	.align 32
.LC0:
	.long	0
	.long	1072693248
	.long	0
	.long	1073741824
	.long	0
	.long	1074266112
	.long	0
	.long	1074790400
	.hidden	__dso_handle
	.ident	"GCC: (Ubuntu 7.4.0-1ubuntu1~18.04.1) 7.4.0"
	.section	.note.GNU-stack,"",@progbits
